target datalayout = "e-m:e-p270:32:32-p271:32:32-p272:64:64-i64:64-i128:128-f80:128-n8:16:32:64-S128"
target triple = "x86_64-pc-linux-gnu"

%struct.FT_ListRec_ = type { ptr, ptr }
%struct.FT_CharMapRec_ = type { ptr, i32, i16, i16 }
%struct.T1_FaceRec_ = type { %struct.FT_FaceRec_, %struct.T1_FontRec_, ptr, ptr, ptr, [2 x %struct.FT_CharMapRec_], [2 x ptr], ptr, i32, i32, i32, ptr, ptr }
%struct.FT_FaceRec_ = type { i64, i64, i64, i64, i64, ptr, ptr, i32, ptr, i32, ptr, %struct.FT_Generic_, %struct.FT_BBox_, i16, i16, i16, i16, i16, i16, i16, i16, ptr, ptr, ptr, ptr, ptr, ptr, %struct.FT_ListRec_, %struct.FT_Generic_, ptr, ptr }
%struct.FT_BBox_ = type { i64, i64, i64, i64 }
%struct.FT_Generic_ = type { ptr, ptr }
%struct.T1_FontRec_ = type { %struct.PS_FontInfoRec_, %struct.PS_FontExtraRec_, %struct.PS_PrivateRec_, ptr, i32, %struct.T1_EncodingRecRec_, ptr, ptr, ptr, i32, ptr, ptr, ptr, i32, ptr, ptr, ptr, i8, i8, %struct.FT_Matrix_, %struct.FT_Vector_, %struct.FT_BBox_, i64, i64 }
%struct.PS_FontInfoRec_ = type { ptr, ptr, ptr, ptr, ptr, i64, i8, i16, i16 }
%struct.PS_FontExtraRec_ = type { i16 }
%struct.PS_PrivateRec_ = type { i32, i32, i8, i8, i8, i8, [14 x i16], [10 x i16], [14 x i16], [10 x i16], i64, i32, i32, [1 x i16], [1 x i16], i8, i8, i8, i8, [13 x i16], [13 x i16], i64, i64, i64, [2 x i16] }
%struct.T1_EncodingRecRec_ = type { i32, i32, i32, ptr, ptr }
%struct.FT_Matrix_ = type { i64, i64, i64, i64 }
%struct.FT_Vector_ = type { i64, i64 }
%struct.AFM_FontInfoRec_ = type { i8, %struct.FT_BBox_, i64, i64, ptr, i32, ptr, i32 }
%struct.AFM_KernPairRec_ = type { i32, i32, i32, i32 }

; Function Attrs: nounwind uwtable
define internal void @T1_Get_Kerning(ptr noundef %0, i32 noundef %1, i32 noundef %2, ptr noundef %3) #0 {
  %5 = alloca ptr, align 8
  %6 = alloca i32, align 4
  %7 = alloca i32, align 4
  %8 = alloca ptr, align 8
  %9 = alloca ptr, align 8
  %10 = alloca ptr, align 8
  %11 = alloca ptr, align 8
  %12 = alloca i64, align 8
  %13 = alloca i64, align 8
  store ptr %0, ptr %5, align 8
  store i32 %1, ptr %6, align 4
  store i32 %2, ptr %7, align 4
  store ptr %3, ptr %8, align 8
  %14 = load i32, ptr %6, align 4
  %15 = zext i32 %14 to i64
  %16 = shl i64 %15, 16
  %17 = load i32, ptr %7, align 4
  %18 = zext i32 %17 to i64
  %19 = or i64 %16, %18
  store i64 %19, ptr %12, align 8
  %20 = load ptr, ptr %5, align 8
  %21 = getelementptr inbounds %struct.AFM_FontInfoRec_, ptr %20, i32 0, i32 6
  %22 = load ptr, ptr %21, align 8
  store ptr %22, ptr %9, align 8
  %23 = load ptr, ptr %9, align 8
  %24 = load ptr, ptr %5, align 8
  %25 = getelementptr inbounds %struct.AFM_FontInfoRec_, ptr %24, i32 0, i32 7
  %26 = load i32, ptr %25, align 8
  %27 = zext i32 %26 to i64
  %28 = getelementptr inbounds %struct.AFM_KernPairRec_, ptr %23, i64 %27
  %29 = getelementptr inbounds %struct.AFM_KernPairRec_, ptr %28, i64 -1
  store ptr %29, ptr %11, align 8
  br label %30

30:                                               ; preds = %80, %4
  %31 = load ptr, ptr %9, align 8
  %32 = load ptr, ptr %11, align 8
  %33 = icmp ule ptr %31, %32
  br i1 %33, label %34, label %81

34:                                               ; preds = %30
  %35 = load ptr, ptr %9, align 8
  %36 = load ptr, ptr %11, align 8
  %37 = load ptr, ptr %9, align 8
  %38 = ptrtoint ptr %36 to i64
  %39 = ptrtoint ptr %37 to i64
  %40 = sub i64 %38, %39
  %41 = sdiv exact i64 %40, 16
  %42 = sdiv i64 %41, 2
  %43 = getelementptr inbounds %struct.AFM_KernPairRec_, ptr %35, i64 %42
  store ptr %43, ptr %10, align 8
  %44 = load ptr, ptr %10, align 8
  %45 = getelementptr inbounds %struct.AFM_KernPairRec_, ptr %44, i32 0, i32 0
  %46 = load i32, ptr %45, align 4
  %47 = zext i32 %46 to i64
  %48 = shl i64 %47, 16
  %49 = load ptr, ptr %10, align 8
  %50 = getelementptr inbounds %struct.AFM_KernPairRec_, ptr %49, i32 0, i32 1
  %51 = load i32, ptr %50, align 4
  %52 = zext i32 %51 to i64
  %53 = or i64 %48, %52
  store i64 %53, ptr %13, align 8
  %54 = load i64, ptr %13, align 8
  %55 = load i64, ptr %12, align 8
  %56 = icmp eq i64 %54, %55
  br i1 %56, label %57, label %70

57:                                               ; preds = %34
  %58 = load ptr, ptr %10, align 8
  %59 = getelementptr inbounds %struct.AFM_KernPairRec_, ptr %58, i32 0, i32 2
  %60 = load i32, ptr %59, align 4
  %61 = sext i32 %60 to i64
  %62 = load ptr, ptr %8, align 8
  %63 = getelementptr inbounds %struct.FT_Vector_, ptr %62, i32 0, i32 0
  store i64 %61, ptr %63, align 8
  %64 = load ptr, ptr %10, align 8
  %65 = getelementptr inbounds %struct.AFM_KernPairRec_, ptr %64, i32 0, i32 3
  %66 = load i32, ptr %65, align 4
  %67 = sext i32 %66 to i64
  %68 = load ptr, ptr %8, align 8
  %69 = getelementptr inbounds %struct.FT_Vector_, ptr %68, i32 0, i32 1
  store i64 %67, ptr %69, align 8
  br label %86

70:                                               ; preds = %34
  %71 = load i64, ptr %13, align 8
  %72 = load i64, ptr %12, align 8
  %73 = icmp ult i64 %71, %72
  br i1 %73, label %74, label %77

74:                                               ; preds = %70
  %75 = load ptr, ptr %10, align 8
  %76 = getelementptr inbounds %struct.AFM_KernPairRec_, ptr %75, i64 1
  store ptr %76, ptr %9, align 8
  br label %80

77:                                               ; preds = %70
  %78 = load ptr, ptr %10, align 8
  %79 = getelementptr inbounds %struct.AFM_KernPairRec_, ptr %78, i64 -1
  store ptr %79, ptr %11, align 8
  br label %80

80:                                               ; preds = %77, %74
  br label %30, !llvm.loop !33

81:                                               ; preds = %30
  %82 = load ptr, ptr %8, align 8
  %83 = getelementptr inbounds %struct.FT_Vector_, ptr %82, i32 0, i32 0
  store i64 0, ptr %83, align 8
  %84 = load ptr, ptr %8, align 8
  %85 = getelementptr inbounds %struct.FT_Vector_, ptr %84, i32 0, i32 1
  store i64 0, ptr %85, align 8
  br label %86

86:                                               ; preds = %81, %57
  ret void
}

; Function Attrs: nounwind uwtable
define internal i32 @Get_Kerning(ptr noundef %0, i32 noundef %1, i32 noundef %2, ptr noundef %3) #0 {
  %5 = alloca ptr, align 8
  %6 = alloca i32, align 4
  %7 = alloca i32, align 4
  %8 = alloca ptr, align 8
  %9 = alloca ptr, align 8
  store ptr %0, ptr %5, align 8
  store i32 %1, ptr %6, align 4
  store i32 %2, ptr %7, align 4
  store ptr %3, ptr %8, align 8
  %10 = load ptr, ptr %5, align 8
  store ptr %10, ptr %9, align 8
  %11 = load ptr, ptr %8, align 8
  %12 = getelementptr inbounds %struct.FT_Vector_, ptr %11, i32 0, i32 0
  store i64 0, ptr %12, align 8
  %13 = load ptr, ptr %8, align 8
  %14 = getelementptr inbounds %struct.FT_Vector_, ptr %13, i32 0, i32 1
  store i64 0, ptr %14, align 8
  %15 = load ptr, ptr %9, align 8
  %16 = getelementptr inbounds %struct.T1_FaceRec_, ptr %15, i32 0, i32 4
  %17 = load ptr, ptr %16, align 8
  %18 = icmp ne ptr %17, null
  br i1 %18, label %19, label %26

19:                                               ; preds = %4
  %20 = load ptr, ptr %9, align 8
  %21 = getelementptr inbounds %struct.T1_FaceRec_, ptr %20, i32 0, i32 4
  %22 = load ptr, ptr %21, align 8
  %23 = load i32, ptr %6, align 4
  %24 = load i32, ptr %7, align 4
  %25 = load ptr, ptr %8, align 8
  call void @T1_Get_Kerning(ptr noundef %22, i32 noundef %23, i32 noundef %24, ptr noundef %25)
  br label %26

26:                                               ; preds = %19, %4
  ret i32 0
}