; Function Attrs: nofree norecurse nosync nounwind memory(read, argmem: readwrite, inaccessiblemem: none) uwtable
define internal noundef i32 @Get_Kerning(ptr nocapture noundef readonly %0, i32 noundef %1, i32 noundef %2, ptr nocapture noundef writeonly %3) #4 {
  %5 = getelementptr inbounds i8, ptr %3, i64 8
  %6 = getelementptr inbounds i8, ptr %0, i64 792
  tail call void @llvm.memset.p0.i64(ptr noundef nonnull align 8 dereferenceable(16) %3, i8 0, i64 16, i1 false)
  %7 = load ptr, ptr %6, align 8
  %.not = icmp eq ptr %7, null
  br i1 %.not, label %T1_Get_Kerning.exit, label %8

8:                                                ; preds = %4
  %9 = getelementptr i8, ptr %7, i64 72
  %.val = load ptr, ptr %9, align 8
  %10 = getelementptr i8, ptr %7, i64 80
  %.val7 = load i32, ptr %10, align 8
  %11 = zext i32 %1 to i64
  %12 = shl nuw nsw i64 %11, 16
  %13 = zext i32 %2 to i64
  %14 = or i64 %12, %13
  %15 = zext i32 %.val7 to i64
  %16 = getelementptr inbounds %struct.AFM_KernPairRec_, ptr %.val, i64 %15
  %17 = getelementptr inbounds i8, ptr %16, i64 -16
  %.not1.i = icmp ult ptr %17, %.val
  br i1 %.not1.i, label %._crit_edge.i, label %.lr.ph.i

.lr.ph.i:                                         ; preds = %8, %39
  %.03.i = phi ptr [ %.1.i, %39 ], [ %.val, %8 ]
  %.0232.i = phi ptr [ %.124.i, %39 ], [ %17, %8 ]
  %18 = ptrtoint ptr %.0232.i to i64
  %19 = ptrtoint ptr %.03.i to i64
  %20 = sub i64 %18, %19
  %21 = ashr exact i64 %20, 4
  %22 = sdiv i64 %21, 2
  %23 = getelementptr inbounds %struct.AFM_KernPairRec_, ptr %.03.i, i64 %22
  %24 = load i32, ptr %23, align 4
  %25 = zext i32 %24 to i64
  %26 = shl nuw nsw i64 %25, 16
  %27 = getelementptr inbounds i8, ptr %23, i64 4
  %28 = load i32, ptr %27, align 4
  %29 = zext i32 %28 to i64
  %30 = or i64 %26, %29
  %31 = icmp eq i64 %30, %14
  br i1 %31, label %32, label %39

32:                                               ; preds = %.lr.ph.i
  %33 = getelementptr inbounds i8, ptr %23, i64 8
  %34 = load i32, ptr %33, align 4
  %35 = sext i32 %34 to i64
  store i64 %35, ptr %3, align 8
  %36 = getelementptr inbounds i8, ptr %23, i64 12
  %37 = load i32, ptr %36, align 4
  %38 = sext i32 %37 to i64
  store i64 %38, ptr %5, align 8
  br label %T1_Get_Kerning.exit

39:                                               ; preds = %.lr.ph.i
  %40 = icmp ult i64 %30, %14
  %41 = getelementptr inbounds i8, ptr %23, i64 16
  %42 = getelementptr inbounds i8, ptr %23, i64 -16
  %.124.i = select i1 %40, ptr %.0232.i, ptr %42
  %.1.i = select i1 %40, ptr %41, ptr %.03.i
  %.not.i = icmp ugt ptr %.1.i, %.124.i
  br i1 %.not.i, label %._crit_edge.i, label %.lr.ph.i, !llvm.loop !13

._crit_edge.i:                                    ; preds = %39, %8
  tail call void @llvm.memset.p0.i64(ptr noundef nonnull align 8 dereferenceable(16) %3, i8 0, i64 16, i1 false)
  br label %T1_Get_Kerning.exit

T1_Get_Kerning.exit:                              ; preds = %._crit_edge.i, %32, %4
  ret i32 0
}